target datalayout = "e-m:e-p270:32:32-p271:32:32-p272:64:64-i64:64-i128:128-f80:128-n8:16:32:64-S128"
target triple = "x86_64-pc-linux-gnu"

%struct._lv_global_t = type { i8, i8, %struct.lv_ll_t, ptr, ptr, %struct.lv_ll_t, i8, i32, i32, ptr, %struct.lv_ll_t, ptr, %struct.lv_ll_t, ptr, ptr, i32, ptr, i8, i32, i32, ptr, i32, %struct.lv_timer_state_t, %struct.lv_anim_state_t, %struct.lv_tick_state_t, %struct._lv_draw_buf_handlers_t, %struct._lv_draw_buf_handlers_t, %struct._lv_draw_buf_handlers_t, %struct.lv_ll_t, ptr, ptr, %struct.lv_draw_global_info_t, [4 x %struct.lv_draw_sw_mask_radius_circle_dsc_t], ptr, ptr, ptr, %struct.lv_tlsf_state_t, %struct.lv_ll_t, ptr, ptr, %struct.lv_style_t, i64, ptr, i32, ptr }
%struct.lv_timer_state_t = type { %struct.lv_ll_t, i8, i8, i8, i8, i32, i8, i32, i32, i32, i32, ptr, ptr }
%struct.lv_anim_state_t = type { i8, i8, ptr, %struct.lv_ll_t }
%struct.lv_tick_state_t = type { i32, i8, ptr, ptr }
%struct._lv_draw_buf_handlers_t = type { ptr, ptr, ptr, ptr, ptr, ptr }
%struct.lv_draw_global_info_t = type { ptr, i32, i32, i32, i32, i8 }
%struct.lv_draw_sw_mask_radius_circle_dsc_t = type { ptr, ptr, ptr, ptr, i32, i32, i32 }
%struct.lv_tlsf_state_t = type { ptr, i64, i64, %struct.lv_ll_t }
%struct.lv_ll_t = type { i32, ptr, ptr }
%struct.lv_style_t = type { ptr, i32, i8 }
%struct._lv_draw_buf_t = type { %struct.lv_image_header_t, i32, ptr, ptr, ptr }
%struct.lv_image_header_t = type <{ i64, i32 }>
%struct.lv_image_dsc_t = type { %struct.lv_image_header_t, i32, ptr, ptr }

@lv_global = external global %struct._lv_global_t, align 8

; Function Attrs: nounwind uwtable
define ptr @lv_draw_buf_align_ex(ptr noundef %0, ptr noundef %1, i32 noundef %2) #0 {
  %4 = alloca ptr, align 8
  %5 = alloca ptr, align 8
  %6 = alloca ptr, align 8
  %7 = alloca i32, align 4
  store ptr %0, ptr %5, align 8, !tbaa !3
  store ptr %1, ptr %6, align 8, !tbaa !8
  store i32 %2, ptr %7, align 4, !tbaa !18
  %8 = load ptr, ptr %5, align 8, !tbaa !3
  %9 = getelementptr inbounds nuw %struct._lv_draw_buf_handlers_t, ptr %8, i32 0, i32 2
  %10 = load ptr, ptr %9, align 8, !tbaa !12
  %11 = icmp ne ptr %10, null
  br i1 %11, label %12, label %19

12:                                               ; preds = %3
  %13 = load ptr, ptr %5, align 8, !tbaa !3
  %14 = getelementptr inbounds nuw %struct._lv_draw_buf_handlers_t, ptr %13, i32 0, i32 2
  %15 = load ptr, ptr %14, align 8, !tbaa !12
  %16 = load ptr, ptr %6, align 8, !tbaa !8
  %17 = load i32, ptr %7, align 4, !tbaa !18
  %18 = call ptr %15(ptr noundef %16, i32 noundef %17)
  store ptr %18, ptr %4, align 8
  br label %20

19:                                               ; preds = %3
  store ptr null, ptr %4, align 8
  br label %20

20:                                               ; preds = %19, %12
  %21 = load ptr, ptr %4, align 8
  ret ptr %21
}

; Function Attrs: nounwind uwtable
define i32 @lv_draw_buf_width_to_stride_ex(ptr noundef %0, i32 noundef %1, i32 noundef %2) #0 {
  %4 = alloca i32, align 4
  %5 = alloca ptr, align 8
  %6 = alloca i32, align 4
  %7 = alloca i32, align 4
  store ptr %0, ptr %5, align 8, !tbaa !3
  store i32 %1, ptr %6, align 4, !tbaa !18
  store i32 %2, ptr %7, align 4, !tbaa !18
  %8 = load ptr, ptr %5, align 8, !tbaa !3
  %9 = getelementptr inbounds nuw %struct._lv_draw_buf_handlers_t, ptr %8, i32 0, i32 5
  %10 = load ptr, ptr %9, align 8, !tbaa !15
  %11 = icmp ne ptr %10, null
  br i1 %11, label %12, label %19

12:                                               ; preds = %3
  %13 = load ptr, ptr %5, align 8, !tbaa !3
  %14 = getelementptr inbounds nuw %struct._lv_draw_buf_handlers_t, ptr %13, i32 0, i32 5
  %15 = load ptr, ptr %14, align 8, !tbaa !15
  %16 = load i32, ptr %6, align 4, !tbaa !18
  %17 = load i32, ptr %7, align 4, !tbaa !18
  %18 = call i32 %15(i32 noundef %16, i32 noundef %17)
  store i32 %18, ptr %4, align 4
  br label %20

19:                                               ; preds = %3
  store i32 0, ptr %4, align 4
  br label %20

20:                                               ; preds = %19, %12
  %21 = load i32, ptr %4, align 4
  ret i32 %21
}

; Function Attrs: nounwind uwtable
define ptr @lv_draw_buf_align(ptr noundef %0, i32 noundef %1) #0 {
  %3 = alloca ptr, align 8
  %4 = alloca i32, align 4
  store ptr %0, ptr %3, align 8, !tbaa !8
  store i32 %1, ptr %4, align 4, !tbaa !18
  %5 = load ptr, ptr %3, align 8, !tbaa !8
  %6 = load i32, ptr %4, align 4, !tbaa !18
  %7 = call ptr @lv_draw_buf_align_ex(ptr noundef getelementptr inbounds nuw (%struct._lv_global_t, ptr @lv_global, i32 0, i32 25), ptr noundef %5, i32 noundef %6)
  ret ptr %7
}

; Function Attrs: nounwind uwtable
define i32 @lv_draw_buf_width_to_stride(i32 noundef %0, i32 noundef %1) #0 {
  %3 = alloca i32, align 4
  %4 = alloca i32, align 4
  store i32 %0, ptr %3, align 4, !tbaa !18
  store i32 %1, ptr %4, align 4, !tbaa !18
  %5 = load i32, ptr %3, align 4, !tbaa !18
  %6 = load i32, ptr %4, align 4, !tbaa !18
  %7 = call i32 @lv_draw_buf_width_to_stride_ex(ptr noundef getelementptr inbounds nuw (%struct._lv_global_t, ptr @lv_global, i32 0, i32 25), i32 noundef %5, i32 noundef %6)
  ret i32 %7
}

; Function Attrs: inlinehint nounwind uwtable
define internal void @lv_memzero(ptr noundef %0, i64 noundef %1) #1 {
  %3 = alloca ptr, align 8
  %4 = alloca i64, align 8
  store ptr %0, ptr %3, align 8, !tbaa !8
  store i64 %1, ptr %4, align 8, !tbaa !16
  %5 = load ptr, ptr %3, align 8, !tbaa !8
  %6 = load i64, ptr %4, align 8, !tbaa !16
  call void @lv_memset(ptr noundef %5, i8 noundef zeroext 0, i64 noundef %6)
  ret void
}

; Function Attrs: nounwind uwtable
define i32 @lv_draw_buf_init(ptr noundef %0, i32 noundef %1, i32 noundef %2, i32 noundef %3, i32 noundef %4, ptr noundef %5, i32 noundef %6) #0 {
  %8 = alloca i32, align 4
  %9 = alloca ptr, align 8
  %10 = alloca i32, align 4
  %11 = alloca i32, align 4
  %12 = alloca i32, align 4
  %13 = alloca i32, align 4
  %14 = alloca ptr, align 8
  %15 = alloca i32, align 4
  %16 = alloca ptr, align 8
  store ptr %0, ptr %9, align 8, !tbaa !22
  store i32 %1, ptr %10, align 4, !tbaa !18
  store i32 %2, ptr %11, align 4, !tbaa !18
  store i32 %3, ptr %12, align 4, !tbaa !18
  store i32 %4, ptr %13, align 4, !tbaa !18
  store ptr %5, ptr %14, align 8, !tbaa !8
  store i32 %6, ptr %15, align 4, !tbaa !18
  br label %17

17:                                               ; preds = %7
  %18 = load ptr, ptr %9, align 8, !tbaa !22
  %19 = icmp ne ptr %18, null
  br i1 %19, label %24, label %20

20:                                               ; preds = %17
  br label %21

21:                                               ; preds = %20
  br label %22

22:                                               ; preds = %21
  br label %23

23:                                               ; preds = %22, %23
  br label %23

24:                                               ; preds = %17
  br label %25

25:                                               ; preds = %24
  %26 = load ptr, ptr %9, align 8, !tbaa !22
  %27 = icmp eq ptr %26, null
  br i1 %27, label %28, label %29

28:                                               ; preds = %25
  store i32 0, ptr %8, align 4
  br label %111

29:                                               ; preds = %25
  %30 = load ptr, ptr %9, align 8, !tbaa !22
  call void @lv_memzero(ptr noundef %30, i64 noundef 40)
  %31 = load i32, ptr %13, align 4, !tbaa !18
  %32 = icmp eq i32 %31, 0
  br i1 %32, label %33, label %37

33:                                               ; preds = %29
  %34 = load i32, ptr %10, align 4, !tbaa !18
  %35 = load i32, ptr %12, align 4, !tbaa !18
  %36 = call i32 @lv_draw_buf_width_to_stride(i32 noundef %34, i32 noundef %35)
  store i32 %36, ptr %13, align 4, !tbaa !18
  br label %37

37:                                               ; preds = %33, %29
  %38 = load i32, ptr %13, align 4, !tbaa !18
  %39 = load i32, ptr %11, align 4, !tbaa !18
  %40 = mul i32 %38, %39
  %41 = load i32, ptr %15, align 4, !tbaa !18
  %42 = icmp ugt i32 %40, %41
  br i1 %42, label %43, label %46

43:                                               ; preds = %37
  br label %44

44:                                               ; preds = %43
  br label %45

45:                                               ; preds = %44
  store i32 0, ptr %8, align 4
  br label %111

46:                                               ; preds = %37
  call void @llvm.lifetime.start.p0(i64 8, ptr %16) #5
  %47 = load ptr, ptr %9, align 8, !tbaa !22
  %48 = getelementptr inbounds nuw %struct._lv_draw_buf_t, ptr %47, i32 0, i32 0
  store ptr %48, ptr %16, align 8, !tbaa !8
  %49 = load i32, ptr %10, align 4, !tbaa !18
  %50 = load ptr, ptr %16, align 8, !tbaa !8
  %51 = zext i32 %49 to i64
  %52 = load i64, ptr %50, align 4
  %53 = and i64 %51, 65535
  %54 = shl i64 %53, 32
  %55 = and i64 %52, -281470681743361
  %56 = or i64 %55, %54
  store i64 %56, ptr %50, align 4
  %57 = load i32, ptr %11, align 4, !tbaa !18
  %58 = load ptr, ptr %16, align 8, !tbaa !8
  %59 = zext i32 %57 to i64
  %60 = load i64, ptr %58, align 4
  %61 = and i64 %59, 65535
  %62 = shl i64 %61, 48
  %63 = and i64 %60, 281474976710655
  %64 = or i64 %63, %62
  store i64 %64, ptr %58, align 4
  %65 = load i32, ptr %12, align 4, !tbaa !18
  %66 = load ptr, ptr %16, align 8, !tbaa !8
  %67 = zext i32 %65 to i64
  %68 = load i64, ptr %66, align 4
  %69 = and i64 %67, 255
  %70 = shl i64 %69, 8
  %71 = and i64 %68, -65281
  %72 = or i64 %71, %70
  store i64 %72, ptr %66, align 4
  %73 = load i32, ptr %13, align 4, !tbaa !18
  %74 = load ptr, ptr %16, align 8, !tbaa !8
  %75 = getelementptr inbounds nuw %struct.lv_image_header_t, ptr %74, i32 0, i32 1
  %76 = load i32, ptr %75, align 4
  %77 = and i32 %73, 65535
  %78 = and i32 %76, -65536
  %79 = or i32 %78, %77
  store i32 %79, ptr %75, align 4
  %80 = load ptr, ptr %16, align 8, !tbaa !8
  %81 = load i64, ptr %80, align 4
  %82 = and i64 %81, -4294901761
  %83 = or i64 %82, 0
  store i64 %83, ptr %80, align 4
  %84 = load ptr, ptr %16, align 8, !tbaa !8
  %85 = load i64, ptr %84, align 4
  %86 = and i64 %85, -256
  %87 = or i64 %86, 25
  store i64 %87, ptr %84, align 4
  %88 = load ptr, ptr %14, align 8, !tbaa !8
  %89 = load ptr, ptr %9, align 8, !tbaa !22
  %90 = getelementptr inbounds nuw %struct._lv_draw_buf_t, ptr %89, i32 0, i32 2
  store ptr %88, ptr %90, align 8, !tbaa !35
  %91 = load ptr, ptr %14, align 8, !tbaa !8
  %92 = load ptr, ptr %9, align 8, !tbaa !22
  %93 = getelementptr inbounds nuw %struct._lv_draw_buf_t, ptr %92, i32 0, i32 3
  store ptr %91, ptr %93, align 8, !tbaa !37
  %94 = load ptr, ptr %9, align 8, !tbaa !22
  %95 = getelementptr inbounds nuw %struct._lv_draw_buf_t, ptr %94, i32 0, i32 4
  store ptr getelementptr inbounds nuw (%struct._lv_global_t, ptr @lv_global, i32 0, i32 25), ptr %95, align 8, !tbaa !24
  %96 = load i32, ptr %15, align 4, !tbaa !18
  %97 = load ptr, ptr %9, align 8, !tbaa !22
  %98 = getelementptr inbounds nuw %struct._lv_draw_buf_t, ptr %97, i32 0, i32 1
  store i32 %96, ptr %98, align 4, !tbaa !38
  %99 = load ptr, ptr %14, align 8, !tbaa !8
  %100 = load i32, ptr %12, align 4, !tbaa !18
  %101 = call ptr @lv_draw_buf_align(ptr noundef %99, i32 noundef %100)
  %102 = load ptr, ptr %9, align 8, !tbaa !22
  %103 = getelementptr inbounds nuw %struct._lv_draw_buf_t, ptr %102, i32 0, i32 3
  %104 = load ptr, ptr %103, align 8, !tbaa !37
  %105 = icmp ne ptr %101, %104
  br i1 %105, label %106, label %110

106:                                              ; preds = %46
  br label %107

107:                                              ; preds = %106
  br label %108

108:                                              ; preds = %107
  br label %109

109:                                              ; preds = %108
  br label %110

110:                                              ; preds = %109, %46
  store i32 1, ptr %8, align 4
  call void @llvm.lifetime.end.p0(i64 8, ptr %16) #5
  br label %111

111:                                              ; preds = %110, %45, %28
  %112 = load i32, ptr %8, align 4
  ret i32 %112
}

; Function Attrs: nounwind uwtable
define void @lv_draw_buf_from_image(ptr noundef %0, ptr noundef %1) #0 {
  %3 = alloca ptr, align 8
  %4 = alloca ptr, align 8
  store ptr %0, ptr %3, align 8, !tbaa !22
  store ptr %1, ptr %4, align 8, !tbaa !8
  %5 = load ptr, ptr %3, align 8, !tbaa !22
  %6 = load ptr, ptr %4, align 8, !tbaa !8
  %7 = getelementptr inbounds nuw %struct.lv_image_dsc_t, ptr %6, i32 0, i32 0
  %8 = load i64, ptr %7, align 8
  %9 = lshr i64 %8, 32
  %10 = and i64 %9, 65535
  %11 = trunc i64 %10 to i32
  %12 = load ptr, ptr %4, align 8, !tbaa !8
  %13 = getelementptr inbounds nuw %struct.lv_image_dsc_t, ptr %12, i32 0, i32 0
  %14 = load i64, ptr %13, align 8
  %15 = lshr i64 %14, 48
  %16 = trunc i64 %15 to i32
  %17 = load ptr, ptr %4, align 8, !tbaa !8
  %18 = getelementptr inbounds nuw %struct.lv_image_dsc_t, ptr %17, i32 0, i32 0
  %19 = load i64, ptr %18, align 8
  %20 = lshr i64 %19, 8
  %21 = and i64 %20, 255
  %22 = trunc i64 %21 to i32
  %23 = load ptr, ptr %4, align 8, !tbaa !8
  %24 = getelementptr inbounds nuw %struct.lv_image_dsc_t, ptr %23, i32 0, i32 0
  %25 = getelementptr inbounds nuw %struct.lv_image_header_t, ptr %24, i32 0, i32 1
  %26 = load i32, ptr %25, align 8
  %27 = and i32 %26, 65535
  %28 = load ptr, ptr %4, align 8, !tbaa !8
  %29 = getelementptr inbounds nuw %struct.lv_image_dsc_t, ptr %28, i32 0, i32 2
  %30 = load ptr, ptr %29, align 8, !tbaa !49
  %31 = load ptr, ptr %4, align 8, !tbaa !8
  %32 = getelementptr inbounds nuw %struct.lv_image_dsc_t, ptr %31, i32 0, i32 1
  %33 = load i32, ptr %32, align 4, !tbaa !51
  %34 = call i32 @lv_draw_buf_init(ptr noundef %5, i32 noundef %11, i32 noundef %16, i32 noundef %22, i32 noundef %27, ptr noundef %30, i32 noundef %33)
  %35 = load ptr, ptr %4, align 8, !tbaa !8
  %36 = getelementptr inbounds nuw %struct.lv_image_dsc_t, ptr %35, i32 0, i32 0
  %37 = load i64, ptr %36, align 8
  %38 = lshr i64 %37, 16
  %39 = and i64 %38, 65535
  %40 = trunc i64 %39 to i32
  %41 = load ptr, ptr %3, align 8, !tbaa !22
  %42 = getelementptr inbounds nuw %struct._lv_draw_buf_t, ptr %41, i32 0, i32 0
  %43 = zext i32 %40 to i64
  %44 = load i64, ptr %42, align 8
  %45 = and i64 %43, 65535
  %46 = shl i64 %45, 16
  %47 = and i64 %44, -4294901761
  %48 = or i64 %47, %46
  store i64 %48, ptr %42, align 8
  ret void
}