; Function Attrs: nounwind uwtable
define void @lv_draw_buf_from_image(ptr noundef %0, ptr noundef readonly captures(none) %1) local_unnamed_addr #0 {
  %3 = load i64, ptr %1, align 8
  %4 = lshr i64 %3, 32
  %5 = trunc nuw i64 %4 to i32
  %6 = and i32 %5, 65535
  %7 = lshr i64 %3, 48
  %8 = trunc nuw nsw i64 %7 to i32
  %9 = trunc i64 %3 to i32
  %10 = lshr i32 %9, 8
  %11 = and i32 %10, 255
  %12 = getelementptr inbounds nuw i8, ptr %1, i64 16
  %13 = load ptr, ptr %12, align 8, !tbaa !40
  %14 = getelementptr inbounds nuw i8, ptr %1, i64 12
  %15 = load i32, ptr %14, align 4, !tbaa !42
  %.not.i = icmp eq ptr %0, null
  br i1 %.not.i, label %.preheader.i, label %16

.preheader.i:                                     ; preds = %2, %.preheader.i
  br label %.preheader.i

16:                                               ; preds = %2
  %17 = getelementptr inbounds nuw i8, ptr %1, i64 8
  %18 = load i32, ptr %17, align 8
  %19 = and i32 %18, 65535
  tail call void @lv_memset(ptr noundef nonnull %0, i8 noundef zeroext 0, i64 noundef 40) #9
  %20 = icmp eq i32 %19, 0
  br i1 %20, label %21, label %lv_draw_buf_width_to_stride.exit.i

21:                                               ; preds = %16
  %22 = load ptr, ptr getelementptr inbounds nuw (i8, ptr @lv_global, i64 392), align 8, !tbaa !10
  %.not.i.i.i = icmp eq ptr %22, null
  br i1 %.not.i.i.i, label %lv_draw_buf_width_to_stride.exit.i, label %23

23:                                               ; preds = %21
  %24 = tail call i32 %22(i32 noundef %6, i32 noundef %11) #9
  br label %lv_draw_buf_width_to_stride.exit.i

lv_draw_buf_width_to_stride.exit.i:               ; preds = %23, %21, %16
  %.030.i = phi i32 [ %19, %16 ], [ %24, %23 ], [ 0, %21 ]
  %25 = mul i32 %.030.i, %8
  %26 = icmp ugt i32 %25, %15
  br i1 %26, label %lv_draw_buf_init.exit, label %27

27:                                               ; preds = %lv_draw_buf_width_to_stride.exit.i
  %28 = and i64 %3, -4294967296
  %29 = shl nuw nsw i32 %11, 8
  %30 = getelementptr inbounds nuw i8, ptr %0, i64 8
  %31 = load i32, ptr %30, align 4
  %32 = and i32 %.030.i, 65535
  %33 = and i32 %31, -65536
  %34 = or disjoint i32 %33, %32
  store i32 %34, ptr %30, align 4
  %.masked.i = zext nneg i32 %29 to i64
  %35 = or disjoint i64 %28, %.masked.i
  %36 = or disjoint i64 %35, 25
  store i64 %36, ptr %0, align 4
  %37 = getelementptr inbounds nuw i8, ptr %0, i64 16
  store ptr %13, ptr %37, align 8, !tbaa !19
  %38 = getelementptr inbounds nuw i8, ptr %0, i64 24
  store ptr %13, ptr %38, align 8, !tbaa !28
  %39 = getelementptr inbounds nuw i8, ptr %0, i64 32
  store ptr getelementptr inbounds nuw (i8, ptr @lv_global, i64 352), ptr %39, align 8, !tbaa !13
  %40 = getelementptr inbounds nuw i8, ptr %0, i64 12
  store i32 %15, ptr %40, align 4, !tbaa !29
  %41 = load ptr, ptr getelementptr inbounds nuw (i8, ptr @lv_global, i64 368), align 8, !tbaa !9
  %.not.i.i34.i = icmp eq ptr %41, null
  br i1 %.not.i.i34.i, label %lv_draw_buf_init.exit, label %42

42:                                               ; preds = %27
  %43 = tail call ptr %41(ptr noundef %13, i32 noundef %11) #9
  br label %lv_draw_buf_init.exit

lv_draw_buf_init.exit:                            ; preds = %lv_draw_buf_width_to_stride.exit.i, %27, %42
  %44 = load i64, ptr %1, align 8
  %45 = and i64 %44, 4294901760
  %46 = load i64, ptr %0, align 8
  %47 = and i64 %46, -4294901761
  %48 = or disjoint i64 %47, %45
  store i64 %48, ptr %0, align 8
  ret void
}